target datalayout = "e-m:e-p270:32:32-p271:32:32-p272:64:64-i64:64-i128:128-f80:128-n8:16:32:64-S128"
target triple = "x86_64-pc-linux-gnu"

%struct.archive_write = type { %struct.archive, i32, i64, i64, ptr, i64, ptr, ptr, ptr, ptr, ptr, i32, i32, ptr, ptr, ptr, ptr, ptr, ptr, ptr, ptr, ptr, ptr, ptr, ptr, ptr, ptr }
%struct.archive = type { i32, i32, ptr, i32, ptr, i32, i32, ptr, %struct.archive_string, ptr, i32, i32, ptr, ptr, i64, i64, i64, i8, i64 }
%struct.archive_string = type { ptr, i64, i64 }
%struct.zip = type { i64, i64, i64, i64, i64, i64, ptr, i32, i32, i32, i32, i32, %struct.trad_enc_ctx, i8, i8, i32, %struct.archive_crypto_ctx, i8, ptr, i8, ptr, i64, ptr, ptr, ptr, i64, i64, i64, ptr, ptr, i32, i32, i32, i32, i32, %struct.z_stream_s, i64, ptr }
%struct.trad_enc_ctx = type { [3 x i32] }
%struct.archive_crypto_ctx = type { ptr, ptr, [32 x i8], i32, [16 x i8], [16 x i8], i32 }
%struct.z_stream_s = type { ptr, i32, i64, ptr, i32, i64, ptr, ptr, ptr, ptr, ptr, i32, i64, i64 }

@.str = private unnamed_addr constant [42 x i8] c"archive_write_zip_set_compression_deflate\00", align 1
@.str.1 = private unnamed_addr constant [71 x i8] c"Can only use archive_write_zip_set_compression_deflate with zip format\00", align 1

; Function Attrs: nounwind uwtable
define dso_local i32 @archive_write_zip_set_compression_deflate(ptr noundef %0) #0 {
  %2 = alloca i32, align 4
  %3 = alloca ptr, align 8
  %4 = alloca ptr, align 8
  %5 = alloca i32, align 4
  %6 = alloca i32, align 4
  %7 = alloca i32, align 4
  %8 = alloca ptr, align 8
  store ptr %0, ptr %3, align 8, !tbaa !4
  call void @llvm.lifetime.start.p0(i64 8, ptr %4) #11
  %9 = load ptr, ptr %3, align 8, !tbaa !4
  store ptr %9, ptr %4, align 8, !tbaa !9
  call void @llvm.lifetime.start.p0(i64 4, ptr %5) #11
  store i32 -25, ptr %5, align 4, !tbaa !11
  br label %10

10:                                               ; preds = %1
  call void @llvm.lifetime.start.p0(i64 4, ptr %6) #11
  %11 = load ptr, ptr %3, align 8, !tbaa !4
  %12 = call i32 @__archive_check_magic(ptr noundef %11, i32 noundef -1329217314, i32 noundef 7, ptr noundef @.str)
  store i32 %12, ptr %6, align 4, !tbaa !11
  %13 = load i32, ptr %6, align 4, !tbaa !11
  %14 = icmp eq i32 %13, -30
  br i1 %14, label %15, label %16

15:                                               ; preds = %10
  store i32 -30, ptr %2, align 4
  store i32 1, ptr %7, align 4
  br label %17

16:                                               ; preds = %10
  store i32 0, ptr %7, align 4
  br label %17

17:                                               ; preds = %16, %15
  call void @llvm.lifetime.end.p0(i64 4, ptr %6) #11
  %18 = load i32, ptr %7, align 4
  switch i32 %18, label %38 [
    i32 0, label %19
  ]

19:                                               ; preds = %17
  br label %20

20:                                               ; preds = %19
  br label %21

21:                                               ; preds = %20
  %22 = load ptr, ptr %4, align 8, !tbaa !9
  %23 = getelementptr inbounds nuw %struct.archive_write, ptr %22, i32 0, i32 0
  %24 = getelementptr inbounds nuw %struct.archive, ptr %23, i32 0, i32 3
  %25 = load i32, ptr %24, align 8, !tbaa !13
  %26 = icmp ne i32 %25, 327680
  br i1 %26, label %27, label %30

27:                                               ; preds = %21
  %28 = load ptr, ptr %4, align 8, !tbaa !9
  %29 = getelementptr inbounds nuw %struct.archive_write, ptr %28, i32 0, i32 0
  call void (ptr, i32, ptr, ...) @archive_set_error(ptr noundef %29, i32 noundef -1, ptr noundef @.str.1)
  store i32 -30, ptr %5, align 4, !tbaa !11
  br label %36

30:                                               ; preds = %21
  call void @llvm.lifetime.start.p0(i64 8, ptr %8) #11
  %31 = load ptr, ptr %4, align 8, !tbaa !9
  %32 = getelementptr inbounds nuw %struct.archive_write, ptr %31, i32 0, i32 15
  %33 = load ptr, ptr %32, align 8, !tbaa !22
  store ptr %33, ptr %8, align 8, !tbaa !23
  %34 = load ptr, ptr %8, align 8, !tbaa !23
  %35 = getelementptr inbounds nuw %struct.zip, ptr %34, i32 0, i32 30
  store i32 8, ptr %35, align 8, !tbaa !25
  store i32 0, ptr %5, align 4, !tbaa !11
  call void @llvm.lifetime.end.p0(i64 8, ptr %8) #11
  br label %36

36:                                               ; preds = %30, %27
  %37 = load i32, ptr %5, align 4, !tbaa !11
  store i32 %37, ptr %2, align 4
  store i32 1, ptr %7, align 4
  br label %38

38:                                               ; preds = %36, %17
  call void @llvm.lifetime.end.p0(i64 4, ptr %5) #11
  call void @llvm.lifetime.end.p0(i64 8, ptr %4) #11
  %39 = load i32, ptr %2, align 4
  ret i32 %39
}