; Function Attrs: nounwind uwtable
define dso_local range(i32 -30, 1) i32 @archive_write_zip_set_compression_deflate(ptr noundef %0) local_unnamed_addr #0 {
  %2 = tail call i32 @__archive_check_magic(ptr noundef %0, i32 noundef -1329217314, i32 noundef 7, ptr noundef nonnull @.str) #13
  %.not = icmp eq i32 %2, -30
  br i1 %.not, label %11, label %3

3:                                                ; preds = %1
  %4 = getelementptr inbounds nuw i8, ptr %0, i64 16
  %5 = load i32, ptr %4, align 8, !tbaa !4
  %.not11 = icmp eq i32 %5, 327680
  br i1 %.not11, label %7, label %6

6:                                                ; preds = %3
  tail call void (ptr, i32, ptr, ...) @archive_set_error(ptr noundef nonnull %0, i32 noundef -1, ptr noundef nonnull @.str.1) #13
  br label %11

7:                                                ; preds = %3
  %8 = getelementptr inbounds nuw i8, ptr %0, i64 248
  %9 = load ptr, ptr %8, align 8, !tbaa !17
  %10 = getelementptr inbounds nuw i8, ptr %9, i64 288
  store i32 8, ptr %10, align 8, !tbaa !18
  br label %11

11:                                               ; preds = %6, %7, %1
  %.1 = phi i32 [ -30, %1 ], [ -30, %6 ], [ 0, %7 ]
  ret i32 %.1
}